; Function Attrs: cold nounwind optsize uwtable
define internal noundef i32 @a64multi_close_encoder(ptr noundef readonly captures(none) %0) #0 {
  %2 = getelementptr inbounds nuw i8, ptr %0, i64 32
  %3 = load ptr, ptr %2, align 8, !tbaa !4
  tail call void @avpriv_elbg_free(ptr noundef %3) #7
  %4 = getelementptr inbounds nuw i8, ptr %3, i64 280
  tail call void @av_freep(ptr noundef nonnull %4) #7
  %5 = getelementptr inbounds nuw i8, ptr %3, i64 296
  tail call void @av_freep(ptr noundef nonnull %5) #7
  %6 = getelementptr inbounds nuw i8, ptr %3, i64 288
  tail call void @av_freep(ptr noundef nonnull %6) #7
  %7 = getelementptr inbounds nuw i8, ptr %3, i64 328
  tail call void @av_freep(ptr noundef nonnull %7) #7
  ret i32 0
}